target datalayout = "e-m:e-p270:32:32-p271:32:32-p272:64:64-i64:64-i128:128-f80:128-n8:16:32:64-S128"
target triple = "x86_64-pc-linux-gnu"

%struct.ForEachState = type { ptr, i32 }
%struct.List = type { i32, i32, i32, ptr, [0 x %union.ListCell] }
%union.ListCell = type { ptr }
%struct.Node = type { i32 }
%struct.Var = type { %struct.Expr, i32, i16, i32, i32, i32, ptr, i32, i32, i32, i16, i32 }
%struct.Expr = type { i32 }

; Function Attrs: nounwind uwtable
define dso_local zeroext i1 @check_functional_grouping(i32 noundef %0, i32 noundef %1, i32 noundef %2, ptr noundef %3, ptr noundef %4) #0 {
  %6 = alloca i1, align 1
  %7 = alloca i32, align 4
  %8 = alloca i32, align 4
  %9 = alloca i32, align 4
  %10 = alloca ptr, align 8
  %11 = alloca ptr, align 8
  %12 = alloca ptr, align 8
  %13 = alloca ptr, align 8
  %14 = alloca i32, align 4
  %15 = alloca ptr, align 8
  %16 = alloca i32, align 4
  %17 = alloca %struct.ForEachState, align 8
  %18 = alloca ptr, align 8
  store i32 %0, ptr %7, align 4
  store i32 %1, ptr %8, align 4
  store i32 %2, ptr %9, align 4
  store ptr %3, ptr %10, align 8
  store ptr %4, ptr %11, align 8
  call void @llvm.lifetime.start.p0(i64 8, ptr %12) #9
  call void @llvm.lifetime.start.p0(i64 8, ptr %13) #9
  call void @llvm.lifetime.start.p0(i64 4, ptr %14) #9
  call void @llvm.lifetime.start.p0(i64 8, ptr %15) #9
  %19 = load i32, ptr %7, align 4
  %20 = call ptr @get_primary_key_attnos(i32 noundef %19, i1 noundef zeroext false, ptr noundef %14)
  store ptr %20, ptr %12, align 8
  %21 = load ptr, ptr %12, align 8
  %22 = icmp eq ptr %21, null
  br i1 %22, label %23, label %24

23:                                               ; preds = %5
  store i1 false, ptr %6, align 1
  store i32 1, ptr %16, align 4
  br label %98

24:                                               ; preds = %5
  store ptr null, ptr %13, align 8
  call void @llvm.lifetime.start.p0(i64 16, ptr %17) #9
  %25 = getelementptr inbounds nuw %struct.ForEachState, ptr %17, i32 0, i32 0
  %26 = load ptr, ptr %10, align 8
  store ptr %26, ptr %25, align 8
  %27 = getelementptr inbounds nuw %struct.ForEachState, ptr %17, i32 0, i32 1
  store i32 0, ptr %27, align 8
  %28 = getelementptr i8, ptr %17, i64 12
  call void @llvm.memset.p0.i64(ptr align 4 %28, i8 0, i64 4, i1 false)
  br label %29

29:                                               ; preds = %83, %24
  %30 = getelementptr inbounds nuw %struct.ForEachState, ptr %17, i32 0, i32 0
  %31 = load ptr, ptr %30, align 8
  %32 = icmp ne ptr %31, null
  br i1 %32, label %33, label %50

33:                                               ; preds = %29
  %34 = getelementptr inbounds nuw %struct.ForEachState, ptr %17, i32 0, i32 1
  %35 = load i32, ptr %34, align 8
  %36 = getelementptr inbounds nuw %struct.ForEachState, ptr %17, i32 0, i32 0
  %37 = load ptr, ptr %36, align 8
  %38 = getelementptr inbounds nuw %struct.List, ptr %37, i32 0, i32 1
  %39 = load i32, ptr %38, align 4
  %40 = icmp slt i32 %35, %39
  br i1 %40, label %41, label %50

41:                                               ; preds = %33
  %42 = getelementptr inbounds nuw %struct.ForEachState, ptr %17, i32 0, i32 0
  %43 = load ptr, ptr %42, align 8
  %44 = getelementptr inbounds nuw %struct.List, ptr %43, i32 0, i32 3
  %45 = load ptr, ptr %44, align 8
  %46 = getelementptr inbounds nuw %struct.ForEachState, ptr %17, i32 0, i32 1
  %47 = load i32, ptr %46, align 8
  %48 = sext i32 %47 to i64
  %49 = getelementptr inbounds %union.ListCell, ptr %45, i64 %48
  store ptr %49, ptr %15, align 8
  br label %51

50:                                               ; preds = %33, %29
  store ptr null, ptr %15, align 8
  br label %51

51:                                               ; preds = %50, %41
  %52 = phi i32 [ 1, %41 ], [ 0, %50 ]
  %53 = icmp ne i32 %52, 0
  br i1 %53, label %55, label %54

54:                                               ; preds = %51
  store i32 2, ptr %16, align 4
  call void @llvm.lifetime.end.p0(i64 16, ptr %17) #9
  br label %87

55:                                               ; preds = %51
  call void @llvm.lifetime.start.p0(i64 8, ptr %18) #9
  %56 = load ptr, ptr %15, align 8
  %57 = load ptr, ptr %56, align 8
  store ptr %57, ptr %18, align 8
  %58 = load ptr, ptr %18, align 8
  %59 = getelementptr inbounds nuw %struct.Node, ptr %58, i32 0, i32 0
  %60 = load i32, ptr %59, align 4
  %61 = icmp eq i32 %60, 6
  br i1 %61, label %62, label %82

62:                                               ; preds = %55
  %63 = load ptr, ptr %18, align 8
  %64 = getelementptr inbounds nuw %struct.Var, ptr %63, i32 0, i32 1
  %65 = load i32, ptr %64, align 4
  %66 = load i32, ptr %8, align 4
  %67 = icmp eq i32 %65, %66
  br i1 %67, label %68, label %82

68:                                               ; preds = %62
  %69 = load ptr, ptr %18, align 8
  %70 = getelementptr inbounds nuw %struct.Var, ptr %69, i32 0, i32 7
  %71 = load i32, ptr %70, align 8
  %72 = load i32, ptr %9, align 4
  %73 = icmp eq i32 %71, %72
  br i1 %73, label %74, label %82

74:                                               ; preds = %68
  %75 = load ptr, ptr %13, align 8
  %76 = load ptr, ptr %18, align 8
  %77 = getelementptr inbounds nuw %struct.Var, ptr %76, i32 0, i32 2
  %78 = load i16, ptr %77, align 8
  %79 = sext i16 %78 to i32
  %80 = sub i32 %79, -7
  %81 = call ptr @bms_add_member(ptr noundef %75, i32 noundef %80)
  store ptr %81, ptr %13, align 8
  br label %82

82:                                               ; preds = %74, %68, %62, %55
  call void @llvm.lifetime.end.p0(i64 8, ptr %18) #9
  br label %83

83:                                               ; preds = %82
  %84 = getelementptr inbounds nuw %struct.ForEachState, ptr %17, i32 0, i32 1
  %85 = load i32, ptr %84, align 8
  %86 = add i32 %85, 1
  store i32 %86, ptr %84, align 8
  br label %29, !llvm.loop !27

87:                                               ; preds = %54
  %88 = load ptr, ptr %12, align 8
  %89 = load ptr, ptr %13, align 8
  %90 = call zeroext i1 @bms_is_subset(ptr noundef %88, ptr noundef %89)
  br i1 %90, label %91, label %97

91:                                               ; preds = %87
  %92 = load ptr, ptr %11, align 8
  %93 = load ptr, ptr %92, align 8
  %94 = load i32, ptr %14, align 4
  %95 = call ptr @lappend_oid(ptr noundef %93, i32 noundef %94)
  %96 = load ptr, ptr %11, align 8
  store ptr %95, ptr %96, align 8
  store i1 true, ptr %6, align 1
  store i32 1, ptr %16, align 4
  br label %98

97:                                               ; preds = %87
  store i1 false, ptr %6, align 1
  store i32 1, ptr %16, align 4
  br label %98

98:                                               ; preds = %97, %91, %23
  call void @llvm.lifetime.end.p0(i64 8, ptr %15) #9
  call void @llvm.lifetime.end.p0(i64 4, ptr %14) #9
  call void @llvm.lifetime.end.p0(i64 8, ptr %13) #9
  call void @llvm.lifetime.end.p0(i64 8, ptr %12) #9
  %99 = load i1, ptr %6, align 1
  ret i1 %99
}