; Function Attrs: nounwind uwtable
define dso_local noundef zeroext i1 @check_functional_grouping(i32 noundef %0, i32 noundef %1, i32 noundef %2, ptr noundef readonly captures(address_is_null) %3, ptr noundef captures(none) %4) local_unnamed_addr #0 {
  %6 = alloca i32, align 4
  call void @llvm.lifetime.start.p0(i64 4, ptr nonnull %6) #12
  %7 = call ptr @get_primary_key_attnos(i32 noundef %0, i1 noundef zeroext false, ptr noundef nonnull %6)
  %8 = icmp eq ptr %7, null
  br i1 %8, label %42, label %.preheader

.preheader:                                       ; preds = %5
  %9 = getelementptr inbounds nuw i8, ptr %3, i64 4
  %.not = icmp eq ptr %3, null
  br i1 %.not, label %._crit_edge, label %.lr.ph

.lr.ph:                                           ; preds = %.preheader
  %10 = getelementptr inbounds nuw i8, ptr %3, i64 16
  %11 = load i32, ptr %9, align 4
  %12 = icmp sgt i32 %11, 0
  br i1 %12, label %.lr.ph33, label %._crit_edge

._crit_edge:                                      ; preds = %34, %.lr.ph, %.preheader
  %.019.lcssa = phi ptr [ null, %.preheader ], [ null, %.lr.ph ], [ %.1, %34 ]
  %13 = tail call zeroext i1 @bms_is_subset(ptr noundef nonnull %7, ptr noundef %.019.lcssa) #12
  br i1 %13, label %38, label %42

.lr.ph33:                                         ; preds = %.lr.ph, %34
  %14 = phi i32 [ %35, %34 ], [ %11, %.lr.ph ]
  %indvars.iv = phi i64 [ %indvars.iv.next, %34 ], [ 0, %.lr.ph ]
  %.0192731 = phi ptr [ %.1, %34 ], [ null, %.lr.ph ]
  %15 = load ptr, ptr %10, align 8
  %16 = getelementptr inbounds nuw %union.ListCell, ptr %15, i64 %indvars.iv
  %17 = load ptr, ptr %16, align 8
  %18 = load i32, ptr %17, align 4
  %19 = icmp eq i32 %18, 6
  br i1 %19, label %20, label %34

20:                                               ; preds = %.lr.ph33
  %21 = getelementptr inbounds nuw i8, ptr %17, i64 4
  %22 = load i32, ptr %21, align 4
  %23 = icmp eq i32 %22, %1
  br i1 %23, label %24, label %34

24:                                               ; preds = %20
  %25 = getelementptr inbounds nuw i8, ptr %17, i64 32
  %26 = load i32, ptr %25, align 8
  %27 = icmp eq i32 %26, %2
  br i1 %27, label %28, label %34

28:                                               ; preds = %24
  %29 = getelementptr inbounds nuw i8, ptr %17, i64 8
  %30 = load i16, ptr %29, align 8
  %31 = sext i16 %30 to i32
  %32 = add nsw i32 %31, 7
  %33 = tail call ptr @bms_add_member(ptr noundef %.0192731, i32 noundef %32) #12
  %.pre = load i32, ptr %9, align 4
  br label %34

34:                                               ; preds = %28, %24, %20, %.lr.ph33
  %35 = phi i32 [ %.pre, %28 ], [ %14, %24 ], [ %14, %20 ], [ %14, %.lr.ph33 ]
  %.1 = phi ptr [ %33, %28 ], [ %.0192731, %24 ], [ %.0192731, %20 ], [ %.0192731, %.lr.ph33 ]
  %indvars.iv.next = add nuw nsw i64 %indvars.iv, 1
  %36 = sext i32 %35 to i64
  %37 = icmp slt i64 %indvars.iv.next, %36
  br i1 %37, label %.lr.ph33, label %._crit_edge

38:                                               ; preds = %._crit_edge
  %39 = load ptr, ptr %4, align 8
  %40 = load i32, ptr %6, align 4
  %41 = tail call ptr @lappend_oid(ptr noundef %39, i32 noundef %40) #12
  store ptr %41, ptr %4, align 8
  br label %42

42:                                               ; preds = %._crit_edge, %5, %38
  %.0 = phi i1 [ true, %38 ], [ false, %5 ], [ false, %._crit_edge ]
  call void @llvm.lifetime.end.p0(i64 4, ptr nonnull %6) #12
  ret i1 %.0
}